target datalayout = "e-m:e-p270:32:32-p271:32:32-p272:64:64-i64:64-i128:128-f80:128-n8:16:32:64-S128"
target triple = "x86_64-pc-linux-gnu"

%struct.H5F_t = type { ptr, ptr, ptr, ptr, i32, ptr, i8, i8, ptr, i32 }
%struct.H5F_shared_t = type { ptr, ptr, ptr, i8, i32, i32, %struct.H5F_mtab_t, ptr, i8, i8, i64, i32, i32, i64, i64, ptr, ptr, %struct.H5AC_cache_config_t, %struct.H5AC_cache_image_config_t, i8, i8, ptr, i64, i32, i8, i64, i64, double, i64, i64, i64, i32, i32, i32, i8, i32, ptr, ptr, ptr, ptr, i8, i8, i8, i64, ptr, ptr, i32, i64, i8, i32, i8, i64, i8, [13 x i32], [13 x i64], [13 x ptr], i8, i64, i64, [7 x i32], [7 x i32], %struct.H5F_blk_aggr_t, %struct.H5F_blk_aggr_t, i64, i64, %struct.H5F_meta_accum_t, i32, i32, [30 x ptr], %struct.H5F_object_flush_t, i8, ptr }
%struct.H5F_mtab_t = type { i32, i32, ptr }
%struct.H5AC_cache_config_t = type { i32, i8, i8, i8, [1025 x i8], i8, i8, i64, double, i64, i64, i64, i32, double, double, i8, i64, i32, double, double, i32, double, double, i8, i64, i32, i8, double, i64, i32 }
%struct.H5AC_cache_image_config_t = type { i32, i8, i8, i32 }
%struct.H5F_blk_aggr_t = type { i64, i64, i64, i64, i64 }
%struct.H5F_meta_accum_t = type { ptr, i64, i64, i64, i64, i64, i8 }
%struct.H5F_object_flush_t = type { ptr, ptr }

@H5F_init_g = external global i8, align 1
@H5_libterm_g = external global i8, align 1
@.str = private unnamed_addr constant [102 x i8] c"generated/home/dtcxzyw/WorkSpace/Projects/compilers/llvm-opt-benchmark/bench/hdf5/hdf5/src/H5Fspace.c\00", align 1
@__func__.H5F__alloc = private unnamed_addr constant [11 x i8] c"H5F__alloc\00", align 1
@H5E_FILE_g = external global i64, align 8
@H5E_CANTGET_g = external global i64, align 8
@.str.1 = private unnamed_addr constant [18 x i8] c"Unable to get eoa\00", align 1
@H5E_BADRANGE_g = external global i64, align 8
@.str.2 = private unnamed_addr constant [80 x i8] c"'normal' file space allocation request will overlap into 'temporary' file space\00", align 1
@H5E_CANTALLOC_g = external global i64, align 8
@.str.3 = private unnamed_addr constant [35 x i8] c"file driver 'alloc' request failed\00", align 1
@H5E_CANTMARKDIRTY_g = external global i64, align 8
@.str.4 = private unnamed_addr constant [28 x i8] c"unable to mark EOA as dirty\00", align 1

; Function Attrs: nounwind uwtable
define i64 @H5F__alloc(ptr noundef %0, i32 noundef %1, i64 noundef %2, ptr noundef %3, ptr noundef %4) #0 {
  %6 = alloca i64, align 8
  %7 = alloca ptr, align 8
  %8 = alloca i32, align 4
  %9 = alloca i64, align 8
  %10 = alloca ptr, align 8
  %11 = alloca ptr, align 8
  %12 = alloca i64, align 8
  %13 = alloca i8, align 1
  %14 = alloca i64, align 8
  %15 = alloca i32, align 4
  store ptr %0, ptr %7, align 8, !tbaa !3
  store i32 %1, ptr %8, align 4, !tbaa !8
  store i64 %2, ptr %9, align 8, !tbaa !10
  store ptr %3, ptr %10, align 8, !tbaa !12
  store ptr %4, ptr %11, align 8, !tbaa !12
  call void @llvm.lifetime.start.p0(i64 8, ptr %12) #4
  store i64 0, ptr %12, align 8, !tbaa !10
  call void @llvm.lifetime.start.p0(i64 1, ptr %13) #4
  store i8 0, ptr %13, align 1, !tbaa !14
  %16 = load i8, ptr @H5F_init_g, align 1, !tbaa !14, !range !16, !noundef !17
  %17 = trunc i8 %16 to i1
  br i1 %17, label %22, label %18

18:                                               ; preds = %5
  %19 = load i8, ptr @H5_libterm_g, align 1, !tbaa !14, !range !16, !noundef !17
  %20 = trunc i8 %19 to i1
  %21 = xor i1 %20, true
  br label %22

22:                                               ; preds = %18, %5
  %23 = phi i1 [ true, %5 ], [ %21, %18 ]
  %24 = xor i1 %23, true
  %25 = xor i1 %24, true
  %26 = zext i1 %25 to i32
  %27 = sext i32 %26 to i64
  %28 = call i64 @llvm.expect.i64(i64 %27, i64 1)
  %29 = icmp ne i64 %28, 0
  br i1 %29, label %30, label %164

30:                                               ; preds = %22
  %31 = load ptr, ptr %7, align 8, !tbaa !3
  %32 = getelementptr inbounds nuw %struct.H5F_t, ptr %31, i32 0, i32 2
  %33 = load ptr, ptr %32, align 8, !tbaa !18
  %34 = getelementptr inbounds nuw %struct.H5F_shared_t, ptr %33, i32 0, i32 50
  %35 = load i8, ptr %34, align 8, !tbaa !24, !range !16, !noundef !17
  %36 = trunc i8 %35 to i1
  br i1 %36, label %37, label %106

37:                                               ; preds = %30
  call void @llvm.lifetime.start.p0(i64 8, ptr %14) #4
  %38 = load ptr, ptr %7, align 8, !tbaa !3
  %39 = load i32, ptr %8, align 4, !tbaa !8
  %40 = call i64 @H5F_get_eoa(ptr noundef %38, i32 noundef %39)
  store i64 %40, ptr %14, align 8, !tbaa !10
  %41 = icmp eq i64 -1, %40
  br i1 %41, label %42, label %61

42:                                               ; preds = %37
  br label %43

43:                                               ; preds = %42
  br label %44

44:                                               ; preds = %43
  br label %45

45:                                               ; preds = %44
  %46 = load i64, ptr @H5E_FILE_g, align 8, !tbaa !10
  %47 = load i64, ptr @H5E_CANTGET_g, align 8, !tbaa !10
  %48 = call i32 (ptr, ptr, i32, i64, i64, ptr, ...) @H5E_printf_stack(ptr noundef @.str, ptr noundef @__func__.H5F__alloc, i32 noundef 99, i64 noundef %46, i64 noundef %47, ptr noundef @.str.1)
  br label %49

49:                                               ; preds = %45
  br label %50

50:                                               ; preds = %49
  store i8 1, ptr %13, align 1, !tbaa !14
  %51 = load i8, ptr %13, align 1, !tbaa !14, !range !16, !noundef !17
  %52 = trunc i8 %51 to i1
  %53 = zext i1 %52 to i8
  store i8 %53, ptr %13, align 1, !tbaa !14
  br label %54

54:                                               ; preds = %50
  br label %55

55:                                               ; preds = %54
  br label %56

56:                                               ; preds = %55
  store i64 -1, ptr %12, align 8, !tbaa !10
  store i32 10, ptr %15, align 4
  br label %103

57:                                               ; No predecessors!
  br label %58

58:                                               ; preds = %57
  br label %59

59:                                               ; preds = %58
  br label %60

60:                                               ; preds = %59
  br label %61

61:                                               ; preds = %60, %37
  %62 = load i64, ptr %14, align 8, !tbaa !10
  %63 = load i64, ptr %9, align 8, !tbaa !10
  %64 = add i64 %62, %63
  %65 = icmp ne i64 %64, -1
  br i1 %65, label %66, label %102

66:                                               ; preds = %61
  %67 = load ptr, ptr %7, align 8, !tbaa !3
  %68 = getelementptr inbounds nuw %struct.H5F_t, ptr %67, i32 0, i32 2
  %69 = load ptr, ptr %68, align 8, !tbaa !18
  %70 = getelementptr inbounds nuw %struct.H5F_shared_t, ptr %69, i32 0, i32 51
  %71 = load i64, ptr %70, align 8, !tbaa !44
  %72 = icmp ne i64 %71, -1
  br i1 %72, label %73, label %102

73:                                               ; preds = %66
  %74 = load i64, ptr %14, align 8, !tbaa !10
  %75 = load i64, ptr %9, align 8, !tbaa !10
  %76 = add i64 %74, %75
  %77 = load ptr, ptr %7, align 8, !tbaa !3
  %78 = getelementptr inbounds nuw %struct.H5F_t, ptr %77, i32 0, i32 2
  %79 = load ptr, ptr %78, align 8, !tbaa !18
  %80 = getelementptr inbounds nuw %struct.H5F_shared_t, ptr %79, i32 0, i32 51
  %81 = load i64, ptr %80, align 8, !tbaa !44
  %82 = icmp ugt i64 %76, %81
  br i1 %82, label %83, label %102

83:                                               ; preds = %73
  br label %84

84:                                               ; preds = %83
  br label %85

85:                                               ; preds = %84
  br label %86

86:                                               ; preds = %85
  %87 = load i64, ptr @H5E_FILE_g, align 8, !tbaa !10
  %88 = load i64, ptr @H5E_BADRANGE_g, align 8, !tbaa !10
  %89 = call i32 (ptr, ptr, i32, i64, i64, ptr, ...) @H5E_printf_stack(ptr noundef @.str, ptr noundef @__func__.H5F__alloc, i32 noundef 104, i64 noundef %87, i64 noundef %88, ptr noundef @.str.2)
  br label %90

90:                                               ; preds = %86
  br label %91

91:                                               ; preds = %90
  store i8 1, ptr %13, align 1, !tbaa !14
  %92 = load i8, ptr %13, align 1, !tbaa !14, !range !16, !noundef !17
  %93 = trunc i8 %92 to i1
  %94 = zext i1 %93 to i8
  store i8 %94, ptr %13, align 1, !tbaa !14
  br label %95

95:                                               ; preds = %91
  br label %96

96:                                               ; preds = %95
  br label %97

97:                                               ; preds = %96
  store i64 -1, ptr %12, align 8, !tbaa !10
  store i32 10, ptr %15, align 4
  br label %103

98:                                               ; No predecessors!
  br label %99

99:                                               ; preds = %98
  br label %100

100:                                              ; preds = %99
  br label %101

101:                                              ; preds = %100
  br label %102

102:                                              ; preds = %101, %73, %66, %61
  store i32 0, ptr %15, align 4
  br label %103

103:                                              ; preds = %97, %56, %102
  call void @llvm.lifetime.end.p0(i64 8, ptr %14) #4
  %104 = load i32, ptr %15, align 4
  switch i32 %104, label %166 [
    i32 0, label %105
    i32 10, label %163
  ]

105:                                              ; preds = %103
  br label %106

106:                                              ; preds = %105, %30
  %107 = load ptr, ptr %7, align 8, !tbaa !3
  %108 = getelementptr inbounds nuw %struct.H5F_t, ptr %107, i32 0, i32 2
  %109 = load ptr, ptr %108, align 8, !tbaa !18
  %110 = getelementptr inbounds nuw %struct.H5F_shared_t, ptr %109, i32 0, i32 0
  %111 = load ptr, ptr %110, align 8, !tbaa !45
  %112 = load i32, ptr %8, align 4, !tbaa !8
  %113 = load ptr, ptr %7, align 8, !tbaa !3
  %114 = load i64, ptr %9, align 8, !tbaa !10
  %115 = load ptr, ptr %10, align 8, !tbaa !12
  %116 = load ptr, ptr %11, align 8, !tbaa !12
  %117 = call i64 @H5FD_alloc(ptr noundef %111, i32 noundef %112, ptr noundef %113, i64 noundef %114, ptr noundef %115, ptr noundef %116)
  store i64 %117, ptr %12, align 8, !tbaa !10
  %118 = load i64, ptr %12, align 8, !tbaa !10
  %119 = icmp ne i64 %118, -1
  br i1 %119, label %139, label %120

120:                                              ; preds = %106
  br label %121

121:                                              ; preds = %120
  br label %122

122:                                              ; preds = %121
  br label %123

123:                                              ; preds = %122
  %124 = load i64, ptr @H5E_FILE_g, align 8, !tbaa !10
  %125 = load i64, ptr @H5E_CANTALLOC_g, align 8, !tbaa !10
  %126 = call i32 (ptr, ptr, i32, i64, i64, ptr, ...) @H5E_printf_stack(ptr noundef @.str, ptr noundef @__func__.H5F__alloc, i32 noundef 110, i64 noundef %124, i64 noundef %125, ptr noundef @.str.3)
  br label %127

127:                                              ; preds = %123
  br label %128

128:                                              ; preds = %127
  store i8 1, ptr %13, align 1, !tbaa !14
  %129 = load i8, ptr %13, align 1, !tbaa !14, !range !16, !noundef !17
  %130 = trunc i8 %129 to i1
  %131 = zext i1 %130 to i8
  store i8 %131, ptr %13, align 1, !tbaa !14
  br label %132

132:                                              ; preds = %128
  br label %133

133:                                              ; preds = %132
  br label %134

134:                                              ; preds = %133
  store i64 -1, ptr %12, align 8, !tbaa !10
  br label %163

135:                                              ; No predecessors!
  br label %136

136:                                              ; preds = %135
  br label %137

137:                                              ; preds = %136
  br label %138

138:                                              ; preds = %137
  br label %139

139:                                              ; preds = %138, %106
  %140 = load ptr, ptr %7, align 8, !tbaa !3
  %141 = call i32 @H5F_eoa_dirty(ptr noundef %140)
  %142 = icmp slt i32 %141, 0
  br i1 %142, label %143, label %162

143:                                              ; preds = %139
  br label %144

144:                                              ; preds = %143
  br label %145

145:                                              ; preds = %144
  br label %146

146:                                              ; preds = %145
  %147 = load i64, ptr @H5E_FILE_g, align 8, !tbaa !10
  %148 = load i64, ptr @H5E_CANTMARKDIRTY_g, align 8, !tbaa !10
  %149 = call i32 (ptr, ptr, i32, i64, i64, ptr, ...) @H5E_printf_stack(ptr noundef @.str, ptr noundef @__func__.H5F__alloc, i32 noundef 114, i64 noundef %147, i64 noundef %148, ptr noundef @.str.4)
  br label %150

150:                                              ; preds = %146
  br label %151

151:                                              ; preds = %150
  store i8 1, ptr %13, align 1, !tbaa !14
  %152 = load i8, ptr %13, align 1, !tbaa !14, !range !16, !noundef !17
  %153 = trunc i8 %152 to i1
  %154 = zext i1 %153 to i8
  store i8 %154, ptr %13, align 1, !tbaa !14
  br label %155

155:                                              ; preds = %151
  br label %156

156:                                              ; preds = %155
  br label %157

157:                                              ; preds = %156
  store i64 -1, ptr %12, align 8, !tbaa !10
  br label %163

158:                                              ; No predecessors!
  br label %159

159:                                              ; preds = %158
  br label %160

160:                                              ; preds = %159
  br label %161

161:                                              ; preds = %160
  br label %162

162:                                              ; preds = %161, %139
  br label %163

163:                                              ; preds = %162, %103, %157, %134
  br label %164

164:                                              ; preds = %163, %22
  %165 = load i64, ptr %12, align 8, !tbaa !10
  store i64 %165, ptr %6, align 8
  store i32 1, ptr %15, align 4
  br label %166

166:                                              ; preds = %164, %103
  call void @llvm.lifetime.end.p0(i64 1, ptr %13) #4
  call void @llvm.lifetime.end.p0(i64 8, ptr %12) #4
  %167 = load i64, ptr %6, align 8
  ret i64 %167
}