; Function Attrs: nounwind uwtable
define i64 @H5F__alloc(ptr noundef %0, i32 noundef %1, i64 noundef %2, ptr noundef %3, ptr noundef %4) local_unnamed_addr #0 {
  %6 = load i8, ptr @H5F_init_g, align 1, !tbaa !3, !range !7, !noundef !8
  %7 = trunc nuw i8 %6 to i1
  %8 = load i8, ptr @H5_libterm_g, align 1, !range !7
  %9 = trunc nuw i8 %8 to i1
  %10 = xor i1 %9, true
  %11 = select i1 %7, i1 true, i1 %10
  br i1 %11, label %12, label %49, !prof !9

12:                                               ; preds = %5
  %13 = getelementptr inbounds nuw i8, ptr %0, i64 16
  %14 = load ptr, ptr %13, align 8, !tbaa !10
  %15 = getelementptr inbounds nuw i8, ptr %14, i64 1536
  %16 = load i8, ptr %15, align 8, !tbaa !19, !range !7, !noundef !8
  %17 = trunc nuw i8 %16 to i1
  br i1 %17, label %18, label %.thread

18:                                               ; preds = %12
  %19 = tail call i64 @H5F_get_eoa(ptr noundef nonnull %0, i32 noundef %1) #2
  %20 = icmp eq i64 %19, -1
  br i1 %20, label %21, label %25

21:                                               ; preds = %18
  %22 = load i64, ptr @H5E_FILE_g, align 8, !tbaa !40
  %23 = load i64, ptr @H5E_CANTGET_g, align 8, !tbaa !40
  %24 = tail call i32 (ptr, ptr, i32, i64, i64, ptr, ...) @H5E_printf_stack(ptr noundef nonnull @.str, ptr noundef nonnull @__func__.H5F__alloc, i32 noundef 99, i64 noundef %22, i64 noundef %23, ptr noundef nonnull @.str.1) #2
  br label %49

25:                                               ; preds = %18
  %26 = add i64 %19, %2
  %.not = icmp eq i64 %26, -1
  %.pre = load ptr, ptr %13, align 8, !tbaa !10
  br i1 %.not, label %.thread, label %27

27:                                               ; preds = %25
  %28 = getelementptr inbounds nuw i8, ptr %.pre, i64 1544
  %29 = load i64, ptr %28, align 8, !tbaa !41
  %30 = icmp ugt i64 %26, %29
  br i1 %30, label %31, label %.thread

31:                                               ; preds = %27
  %32 = load i64, ptr @H5E_FILE_g, align 8, !tbaa !40
  %33 = load i64, ptr @H5E_BADRANGE_g, align 8, !tbaa !40
  %34 = tail call i32 (ptr, ptr, i32, i64, i64, ptr, ...) @H5E_printf_stack(ptr noundef nonnull @.str, ptr noundef nonnull @__func__.H5F__alloc, i32 noundef 104, i64 noundef %32, i64 noundef %33, ptr noundef nonnull @.str.2) #2
  br label %49

.thread:                                          ; preds = %25, %27, %12
  %35 = phi ptr [ %.pre, %25 ], [ %.pre, %27 ], [ %14, %12 ]
  %36 = load ptr, ptr %35, align 8, !tbaa !42
  %37 = tail call i64 @H5FD_alloc(ptr noundef %36, i32 noundef %1, ptr noundef nonnull %0, i64 noundef %2, ptr noundef %3, ptr noundef %4) #2
  %.not30 = icmp eq i64 %37, -1
  br i1 %.not30, label %38, label %42

38:                                               ; preds = %.thread
  %39 = load i64, ptr @H5E_FILE_g, align 8, !tbaa !40
  %40 = load i64, ptr @H5E_CANTALLOC_g, align 8, !tbaa !40
  %41 = tail call i32 (ptr, ptr, i32, i64, i64, ptr, ...) @H5E_printf_stack(ptr noundef nonnull @.str, ptr noundef nonnull @__func__.H5F__alloc, i32 noundef 110, i64 noundef %39, i64 noundef %40, ptr noundef nonnull @.str.3) #2
  br label %49

42:                                               ; preds = %.thread
  %43 = tail call i32 @H5F_eoa_dirty(ptr noundef nonnull %0) #2
  %44 = icmp slt i32 %43, 0
  br i1 %44, label %45, label %49

45:                                               ; preds = %42
  %46 = load i64, ptr @H5E_FILE_g, align 8, !tbaa !40
  %47 = load i64, ptr @H5E_CANTMARKDIRTY_g, align 8, !tbaa !40
  %48 = tail call i32 (ptr, ptr, i32, i64, i64, ptr, ...) @H5E_printf_stack(ptr noundef nonnull @.str, ptr noundef nonnull @__func__.H5F__alloc, i32 noundef 114, i64 noundef %46, i64 noundef %47, ptr noundef nonnull @.str.4) #2
  br label %49

49:                                               ; preds = %21, %31, %5, %42, %45, %38
  %.023 = phi i64 [ -1, %45 ], [ %37, %42 ], [ -1, %38 ], [ 0, %5 ], [ -1, %21 ], [ -1, %31 ]
  ret i64 %.023
}